target datalayout = "e-m:e-p270:32:32-p271:32:32-p272:64:64-i64:64-i128:128-f80:128-n8:16:32:64-S128"
target triple = "x86_64-pc-linux-gnu"

%struct.X509_pubkey_st = type { ptr, ptr, ptr, ptr, ptr, i8 }

@.str = private unnamed_addr constant [34 x i8] c"../openssl/crypto/x509/x_pubkey.c\00", align 1
@__func__.X509_PUBKEY_get0 = private unnamed_addr constant [17 x i8] c"X509_PUBKEY_get0\00", align 1

; Function Attrs: nounwind uwtable
define ptr @X509_PUBKEY_get0(ptr noundef %0) #0 {
  %2 = alloca ptr, align 8
  %3 = alloca ptr, align 8
  store ptr %0, ptr %3, align 8, !tbaa !14
  %4 = load ptr, ptr %3, align 8, !tbaa !14
  %5 = icmp eq ptr %4, null
  br i1 %5, label %6, label %7

6:                                                ; preds = %1
  call void @ERR_new()
  call void @ERR_set_debug(ptr noundef @.str, i32 noundef 458, ptr noundef @__func__.X509_PUBKEY_get0)
  call void (i32, i32, ptr, ...) @ERR_set_error(i32 noundef 11, i32 noundef 786690, ptr noundef null)
  store ptr null, ptr %2, align 8
  br label %17

7:                                                ; preds = %1
  %8 = load ptr, ptr %3, align 8, !tbaa !14
  %9 = getelementptr inbounds nuw %struct.X509_pubkey_st, ptr %8, i32 0, i32 2
  %10 = load ptr, ptr %9, align 8, !tbaa !30
  %11 = icmp eq ptr %10, null
  br i1 %11, label %12, label %13

12:                                               ; preds = %7
  call void @ERR_new()
  call void @ERR_set_debug(ptr noundef @.str, i32 noundef 464, ptr noundef @__func__.X509_PUBKEY_get0)
  call void (i32, i32, ptr, ...) @ERR_set_error(i32 noundef 6, i32 noundef 114, ptr noundef null)
  store ptr null, ptr %2, align 8
  br label %17

13:                                               ; preds = %7
  %14 = load ptr, ptr %3, align 8, !tbaa !14
  %15 = getelementptr inbounds nuw %struct.X509_pubkey_st, ptr %14, i32 0, i32 2
  %16 = load ptr, ptr %15, align 8, !tbaa !30
  store ptr %16, ptr %2, align 8
  br label %17

17:                                               ; preds = %13, %12, %6
  %18 = load ptr, ptr %2, align 8
  ret ptr %18
}